target datalayout = "e-m:e-p270:32:32-p271:32:32-p272:64:64-i64:64-i128:128-f80:128-n8:16:32:64-S128"
target triple = "x86_64-pc-linux-gnu"

%struct.curve448_scalar_s = type { [7 x i64] }

; Function Attrs: nounwind uwtable
define void @ossl_curve448_scalar_encode(ptr noundef %0, ptr noundef %1) #0 {
  %3 = alloca ptr, align 8
  %4 = alloca ptr, align 8
  %5 = alloca i32, align 4
  %6 = alloca i32, align 4
  %7 = alloca i32, align 4
  store ptr %0, ptr %3, align 8, !tbaa !23
  store ptr %1, ptr %4, align 8, !tbaa !3
  call void @llvm.lifetime.start.p0(i64 4, ptr %5) #6
  call void @llvm.lifetime.start.p0(i64 4, ptr %6) #6
  call void @llvm.lifetime.start.p0(i64 4, ptr %7) #6
  store i32 0, ptr %7, align 4, !tbaa !10
  store i32 0, ptr %5, align 4, !tbaa !10
  br label %8

8:                                                ; preds = %38, %2
  %9 = load i32, ptr %5, align 4, !tbaa !10
  %10 = icmp ult i32 %9, 7
  br i1 %10, label %11, label %41

11:                                               ; preds = %8
  store i32 0, ptr %6, align 4, !tbaa !10
  br label %12

12:                                               ; preds = %32, %11
  %13 = load i32, ptr %6, align 4, !tbaa !10
  %14 = zext i32 %13 to i64
  %15 = icmp ult i64 %14, 8
  br i1 %15, label %16, label %37

16:                                               ; preds = %12
  %17 = load ptr, ptr %4, align 8, !tbaa !3
  %18 = getelementptr inbounds nuw %struct.curve448_scalar_s, ptr %17, i32 0, i32 0
  %19 = load i32, ptr %5, align 4, !tbaa !10
  %20 = zext i32 %19 to i64
  %21 = getelementptr inbounds nuw [7 x i64], ptr %18, i64 0, i64 %20
  %22 = load i64, ptr %21, align 8, !tbaa !8
  %23 = load i32, ptr %6, align 4, !tbaa !10
  %24 = mul i32 8, %23
  %25 = zext i32 %24 to i64
  %26 = lshr i64 %22, %25
  %27 = trunc i64 %26 to i8
  %28 = load ptr, ptr %3, align 8, !tbaa !23
  %29 = load i32, ptr %7, align 4, !tbaa !10
  %30 = zext i32 %29 to i64
  %31 = getelementptr inbounds nuw i8, ptr %28, i64 %30
  store i8 %27, ptr %31, align 1, !tbaa !26
  br label %32

32:                                               ; preds = %16
  %33 = load i32, ptr %6, align 4, !tbaa !10
  %34 = add i32 %33, 1
  store i32 %34, ptr %6, align 4, !tbaa !10
  %35 = load i32, ptr %7, align 4, !tbaa !10
  %36 = add i32 %35, 1
  store i32 %36, ptr %7, align 4, !tbaa !10
  br label %12, !llvm.loop !31

37:                                               ; preds = %12
  br label %38

38:                                               ; preds = %37
  %39 = load i32, ptr %5, align 4, !tbaa !10
  %40 = add i32 %39, 1
  store i32 %40, ptr %5, align 4, !tbaa !10
  br label %8, !llvm.loop !32

41:                                               ; preds = %8
  call void @llvm.lifetime.end.p0(i64 4, ptr %7) #6
  call void @llvm.lifetime.end.p0(i64 4, ptr %6) #6
  call void @llvm.lifetime.end.p0(i64 4, ptr %5) #6
  ret void
}