; Function Attrs: nofree norecurse nosync nounwind memory(argmem: readwrite) uwtable
define void @ossl_curve448_scalar_encode(ptr noundef writeonly captures(none) %0, ptr noundef readonly captures(none) %1) local_unnamed_addr #0 {
  br label %.preheader

.preheader:                                       ; preds = %2, %12
  %indvars.iv16 = phi i64 [ 0, %2 ], [ %indvars.iv.next17, %12 ]
  %.014 = phi i32 [ 0, %2 ], [ %11, %12 ]
  %3 = getelementptr inbounds nuw [7 x i64], ptr %1, i64 0, i64 %indvars.iv16
  br label %4

4:                                                ; preds = %.preheader, %4
  %indvars.iv = phi i64 [ 0, %.preheader ], [ %indvars.iv.next, %4 ]
  %.112 = phi i32 [ %.014, %.preheader ], [ %11, %4 ]
  %5 = load i64, ptr %3, align 8, !tbaa !3
  %6 = shl nuw nsw i64 %indvars.iv, 3
  %7 = lshr i64 %5, %6
  %8 = trunc i64 %7 to i8
  %9 = zext i32 %.112 to i64
  %10 = getelementptr inbounds nuw i8, ptr %0, i64 %9
  store i8 %8, ptr %10, align 1, !tbaa !14
  %indvars.iv.next = add nuw nsw i64 %indvars.iv, 1
  %11 = add i32 %.112, 1
  %exitcond.not = icmp eq i64 %indvars.iv.next, 8
  br i1 %exitcond.not, label %12, label %4, !llvm.loop !20

12:                                               ; preds = %4
  %indvars.iv.next17 = add nuw nsw i64 %indvars.iv16, 1
  %exitcond19.not = icmp eq i64 %indvars.iv.next17, 7
  br i1 %exitcond19.not, label %13, label %.preheader, !llvm.loop !21

13:                                               ; preds = %12
  ret void
}